; Function Attrs: mustprogress uwtable
define void @_Z8gmx_sumimPiPK9t_commrec(i64 noundef %0, ptr noundef %1, ptr nocapture noundef readonly %2) local_unnamed_addr #0 {
  %4 = getelementptr inbounds i8, ptr %2, i64 32
  %5 = load i32, ptr %4, align 8
  %6 = icmp eq i32 %5, 1
  br i1 %6, label %.loopexit, label %7

7:                                                ; preds = %3
  %8 = getelementptr inbounds i8, ptr %2, i64 56
  %9 = load i8, ptr %8, align 8
  %10 = trunc i8 %9 to i1
  br i1 %10, label %13, label %.preheader82

.preheader82:                                     ; preds = %7
  %.not84 = icmp eq i64 %0, 0
  br i1 %.not84, label %.loopexit, label %.lr.ph

.lr.ph:                                           ; preds = %.preheader82
  %11 = load ptr, ptr @TMPI_INT, align 8
  %12 = getelementptr inbounds i8, ptr %2, i64 24
  br label %47

13:                                               ; preds = %7
  %14 = getelementptr inbounds i8, ptr %2, i64 72
  %15 = load i32, ptr %14, align 8
  %16 = icmp eq i32 %15, 0
  %cond99 = icmp eq i64 %0, 0
  br i1 %16, label %.preheader, label %.preheader80

.preheader80:                                     ; preds = %13
  br i1 %cond99, label %.loopexit, label %.lr.ph90

.lr.ph90:                                         ; preds = %.preheader80
  %17 = load ptr, ptr @TMPI_INT, align 8
  %18 = getelementptr inbounds i8, ptr %2, i64 64
  br label %31

.preheader:                                       ; preds = %13
  br i1 %cond99, label %.loopexit, label %.lr.ph94

.lr.ph94:                                         ; preds = %.preheader
  %19 = load ptr, ptr @TMPI_INT, align 8
  %20 = getelementptr inbounds i8, ptr %2, i64 64
  %21 = getelementptr inbounds i8, ptr %2, i64 80
  br label %22

22:                                               ; preds = %.lr.ph94, %22
  %.093 = phi i64 [ 0, %.lr.ph94 ], [ %29, %22 ]
  %storemerge4392 = phi i64 [ %0, %.lr.ph94 ], [ %30, %22 ]
  %.sroa.speculated67 = tail call i64 @llvm.umin.i64(i64 %storemerge4392, i64 2147483647)
  %23 = getelementptr inbounds i32, ptr %1, i64 %.093
  %24 = trunc nuw nsw i64 %.sroa.speculated67 to i32
  %25 = load ptr, ptr %20, align 8
  %26 = tail call noundef i32 @_Z11tMPI_ReducePvS_iP14tmpi_datatype_7tMPI_OpiP10tmpi_comm_(ptr noundef null, ptr noundef %23, i32 noundef %24, ptr noundef %19, i32 noundef 2, i32 noundef 0, ptr noundef %25)
  %27 = load ptr, ptr %21, align 8
  %28 = tail call noundef i32 @_Z14tMPI_AllreducePvS_iP14tmpi_datatype_7tMPI_OpP10tmpi_comm_(ptr noundef null, ptr noundef %23, i32 noundef %24, ptr noundef %19, i32 noundef 2, ptr noundef %27)
  %29 = add i64 %.093, %.sroa.speculated67
  %30 = sub i64 %storemerge4392, %.sroa.speculated67
  %.not44 = icmp eq i64 %30, 0
  br i1 %.not44, label %.loopexit79, label %22, !llvm.loop !18

31:                                               ; preds = %.lr.ph90, %31
  %.03989 = phi i64 [ 0, %.lr.ph90 ], [ %36, %31 ]
  %storemerge4188 = phi i64 [ %0, %.lr.ph90 ], [ %37, %31 ]
  %.sroa.speculated61 = tail call i64 @llvm.umin.i64(i64 %storemerge4188, i64 2147483647)
  %32 = getelementptr inbounds i32, ptr %1, i64 %.03989
  %33 = trunc nuw nsw i64 %.sroa.speculated61 to i32
  %34 = load ptr, ptr %18, align 8
  %35 = tail call noundef i32 @_Z11tMPI_ReducePvS_iP14tmpi_datatype_7tMPI_OpiP10tmpi_comm_(ptr noundef %32, ptr noundef null, i32 noundef %33, ptr noundef %17, i32 noundef 2, i32 noundef 0, ptr noundef %34)
  %36 = add i64 %.03989, %.sroa.speculated61
  %37 = sub i64 %storemerge4188, %.sroa.speculated61
  %.not42 = icmp eq i64 %37, 0
  br i1 %.not42, label %.loopexit79, label %31, !llvm.loop !19

.loopexit79:                                      ; preds = %31, %22
  %38 = phi ptr [ %19, %22 ], [ %17, %31 ]
  %.not4695 = icmp eq i64 %0, 0
  br i1 %.not4695, label %.loopexit, label %.lr.ph98

.lr.ph98:                                         ; preds = %.loopexit79
  %39 = getelementptr inbounds i8, ptr %2, i64 64
  br label %40

40:                                               ; preds = %.lr.ph98, %40
  %.04097 = phi i64 [ 0, %.lr.ph98 ], [ %45, %40 ]
  %storemerge4596 = phi i64 [ %0, %.lr.ph98 ], [ %46, %40 ]
  %.sroa.speculated55 = tail call i64 @llvm.umin.i64(i64 %storemerge4596, i64 2147483647)
  %41 = getelementptr inbounds i32, ptr %1, i64 %.04097
  %42 = trunc nuw nsw i64 %.sroa.speculated55 to i32
  %43 = load ptr, ptr %39, align 8
  %44 = tail call noundef i32 @_Z10tMPI_BcastPviP14tmpi_datatype_iP10tmpi_comm_(ptr noundef %41, i32 noundef %42, ptr noundef %38, i32 noundef 0, ptr noundef %43)
  %45 = add i64 %.04097, %.sroa.speculated55
  %46 = sub i64 %storemerge4596, %.sroa.speculated55
  %.not46 = icmp eq i64 %46, 0
  br i1 %.not46, label %.loopexit, label %40, !llvm.loop !20

47:                                               ; preds = %.lr.ph, %47
  %.03886 = phi i64 [ 0, %.lr.ph ], [ %52, %47 ]
  %storemerge85 = phi i64 [ %0, %.lr.ph ], [ %53, %47 ]
  %.sroa.speculated = tail call i64 @llvm.umin.i64(i64 %storemerge85, i64 2147483647)
  %48 = getelementptr inbounds i32, ptr %1, i64 %.03886
  %49 = trunc nuw nsw i64 %.sroa.speculated to i32
  %50 = load ptr, ptr %12, align 8
  %51 = tail call noundef i32 @_Z14tMPI_AllreducePvS_iP14tmpi_datatype_7tMPI_OpP10tmpi_comm_(ptr noundef null, ptr noundef %48, i32 noundef %49, ptr noundef %11, i32 noundef 2, ptr noundef %50)
  %52 = add i64 %.03886, %.sroa.speculated
  %53 = sub i64 %storemerge85, %.sroa.speculated
  %.not = icmp eq i64 %53, 0
  br i1 %.not, label %.loopexit, label %47, !llvm.loop !21

.loopexit:                                        ; preds = %47, %40, %.preheader, %.preheader80, %.preheader82, %.loopexit79, %3
  ret void
}